target datalayout = "e-m:e-p270:32:32-p271:32:32-p272:64:64-i64:64-i128:128-f80:128-n8:16:32:64-S128"
target triple = "x86_64-pc-linux-gnu"

%struct.AVFilterContext = type { ptr, ptr, ptr, ptr, ptr, i32, ptr, ptr, i32, ptr, ptr, i32, i32, ptr, ptr, ptr, ptr, i32, ptr, i32, i32 }
%struct.BM3DContext = type { ptr, float, i32, i32, i32, i32, i32, float, float, i32, i32, i32, i32, i32, i32, [4 x i32], [4 x i32], i32, i32, [32 x %struct.SliceContext], %struct.FFFrameSync, i32, ptr, ptr, ptr, ptr }
%struct.SliceContext = type { ptr, ptr, ptr, ptr, ptr, ptr, ptr, ptr, ptr, ptr, ptr, ptr, ptr, ptr, ptr, ptr, ptr, ptr, ptr, [256 x %struct.PosPairCode], i32, ptr }
%struct.PosPairCode = type { double, i32, i32 }
%struct.FFFrameSync = type { ptr, ptr, i32, %struct.AVRational, i64, ptr, ptr, i32, i32, i8, i8, ptr, i32, i32, i32, i32 }
%struct.AVRational = type { i32, i32 }
%struct.AVFilterLink = type { ptr, ptr, ptr, ptr, i32, i32, i32, i32, %struct.AVRational, i32, i32, i32, %struct.AVChannelLayout, %struct.AVRational, ptr, i32, %struct.AVFilterFormatsConfig, %struct.AVFilterFormatsConfig }
%struct.AVChannelLayout = type { i32, i32, %union.anon.1, ptr }
%union.anon.1 = type { i64 }
%struct.AVFilterFormatsConfig = type { ptr, ptr, ptr, ptr, ptr }
%struct.AVFrame = type { [8 x ptr], [8 x i32], ptr, i32, i32, i32, i32, i32, %struct.AVRational, i64, i64, %struct.AVRational, i32, ptr, i32, i32, [8 x ptr], ptr, i32, ptr, i32, i32, i32, i32, i32, i32, i32, i64, ptr, i32, ptr, ptr, i64, i64, i64, i64, ptr, %struct.AVChannelLayout, i64 }

; Function Attrs: nounwind uwtable
define internal i32 @process_frame(ptr noundef %0) #1 {
  %2 = alloca i32, align 4
  %3 = alloca ptr, align 8
  %4 = alloca ptr, align 8
  %5 = alloca ptr, align 8
  %6 = alloca ptr, align 8
  %7 = alloca ptr, align 8
  %8 = alloca ptr, align 8
  %9 = alloca ptr, align 8
  %10 = alloca i32, align 4
  %11 = alloca i32, align 4
  store ptr %0, ptr %3, align 8, !tbaa !77
  call void @llvm.lifetime.start.p0(i64 8, ptr %4) #12
  %12 = load ptr, ptr %3, align 8, !tbaa !77
  %13 = getelementptr inbounds nuw %struct.FFFrameSync, ptr %12, i32 0, i32 1
  %14 = load ptr, ptr %13, align 8, !tbaa !79
  store ptr %14, ptr %4, align 8, !tbaa !4
  call void @llvm.lifetime.start.p0(i64 8, ptr %5) #12
  %15 = load ptr, ptr %3, align 8, !tbaa !77
  %16 = getelementptr inbounds nuw %struct.FFFrameSync, ptr %15, i32 0, i32 6
  %17 = load ptr, ptr %16, align 8, !tbaa !80
  store ptr %17, ptr %5, align 8, !tbaa !22
  call void @llvm.lifetime.start.p0(i64 8, ptr %6) #12
  %18 = load ptr, ptr %4, align 8, !tbaa !4
  %19 = getelementptr inbounds nuw %struct.AVFilterContext, ptr %18, i32 0, i32 7
  %20 = load ptr, ptr %19, align 8, !tbaa !51
  %21 = getelementptr inbounds ptr, ptr %20, i64 0
  %22 = load ptr, ptr %21, align 8, !tbaa !52
  store ptr %22, ptr %6, align 8, !tbaa !52
  call void @llvm.lifetime.start.p0(i64 8, ptr %7) #12
  store ptr null, ptr %7, align 8, !tbaa !49
  call void @llvm.lifetime.start.p0(i64 8, ptr %8) #12
  call void @llvm.lifetime.start.p0(i64 8, ptr %9) #12
  call void @llvm.lifetime.start.p0(i64 4, ptr %10) #12
  %23 = load ptr, ptr %5, align 8, !tbaa !22
  %24 = getelementptr inbounds nuw %struct.BM3DContext, ptr %23, i32 0, i32 20
  %25 = call i32 @ff_framesync_get_frame(ptr noundef %24, i32 noundef 0, ptr noundef %8, i32 noundef 0)
  store i32 %25, ptr %10, align 4, !tbaa !43
  %26 = icmp slt i32 %25, 0
  br i1 %26, label %32, label %27

27:                                               ; preds = %1
  %28 = load ptr, ptr %5, align 8, !tbaa !22
  %29 = getelementptr inbounds nuw %struct.BM3DContext, ptr %28, i32 0, i32 20
  %30 = call i32 @ff_framesync_get_frame(ptr noundef %29, i32 noundef 1, ptr noundef %9, i32 noundef 0)
  store i32 %30, ptr %10, align 4, !tbaa !43
  %31 = icmp slt i32 %30, 0
  br i1 %31, label %32, label %34

32:                                               ; preds = %27, %1
  %33 = load i32, ptr %10, align 4, !tbaa !43
  store i32 %33, ptr %2, align 4
  store i32 1, ptr %11, align 4
  br label %59

34:                                               ; preds = %27
  %35 = load ptr, ptr %4, align 8, !tbaa !4
  %36 = load ptr, ptr %8, align 8, !tbaa !49
  %37 = load ptr, ptr %9, align 8, !tbaa !49
  %38 = call i32 @filter_frame(ptr noundef %35, ptr noundef %7, ptr noundef %36, ptr noundef %37)
  store i32 %38, ptr %10, align 4, !tbaa !43
  %39 = icmp slt i32 %38, 0
  br i1 %39, label %40, label %42

40:                                               ; preds = %34
  %41 = load i32, ptr %10, align 4, !tbaa !43
  store i32 %41, ptr %2, align 4
  store i32 1, ptr %11, align 4
  br label %59

42:                                               ; preds = %34
  %43 = load ptr, ptr %8, align 8, !tbaa !49
  %44 = getelementptr inbounds nuw %struct.AVFrame, ptr %43, i32 0, i32 9
  %45 = load i64, ptr %44, align 8, !tbaa !81
  %46 = load ptr, ptr %5, align 8, !tbaa !22
  %47 = getelementptr inbounds nuw %struct.BM3DContext, ptr %46, i32 0, i32 20
  %48 = getelementptr inbounds nuw %struct.FFFrameSync, ptr %47, i32 0, i32 3
  %49 = load ptr, ptr %6, align 8, !tbaa !52
  %50 = getelementptr inbounds nuw %struct.AVFilterLink, ptr %49, i32 0, i32 13
  %51 = load i64, ptr %48, align 4
  %52 = load i64, ptr %50, align 8
  %53 = call i64 @av_rescale_q(i64 noundef %45, i64 %51, i64 %52) #13
  %54 = load ptr, ptr %7, align 8, !tbaa !49
  %55 = getelementptr inbounds nuw %struct.AVFrame, ptr %54, i32 0, i32 9
  store i64 %53, ptr %55, align 8, !tbaa !81
  %56 = load ptr, ptr %6, align 8, !tbaa !52
  %57 = load ptr, ptr %7, align 8, !tbaa !49
  %58 = call i32 @ff_filter_frame(ptr noundef %56, ptr noundef %57)
  store i32 %58, ptr %2, align 4
  store i32 1, ptr %11, align 4
  br label %59

59:                                               ; preds = %42, %40, %32
  call void @llvm.lifetime.end.p0(i64 4, ptr %10) #12
  call void @llvm.lifetime.end.p0(i64 8, ptr %9) #12
  call void @llvm.lifetime.end.p0(i64 8, ptr %8) #12
  call void @llvm.lifetime.end.p0(i64 8, ptr %7) #12
  call void @llvm.lifetime.end.p0(i64 8, ptr %6) #12
  call void @llvm.lifetime.end.p0(i64 8, ptr %5) #12
  call void @llvm.lifetime.end.p0(i64 8, ptr %4) #12
  %60 = load i32, ptr %2, align 4
  ret i32 %60
}